; Function Attrs: mustprogress uwtable
define noundef zeroext i1 @_ZN8RichShoteqERK13RichParameter(ptr noundef nonnull align 8 dereferenceable(56) %0, ptr noundef nonnull align 8 dereferenceable(56) %1) unnamed_addr #2 align 2 {
  %3 = tail call noundef nonnull align 8 dereferenceable(8) ptr @_ZNK13RichParameter5valueEv(ptr noundef nonnull align 8 dereferenceable(56) %1)
  %4 = load ptr, ptr %3, align 8
  %5 = getelementptr inbounds i8, ptr %4, i64 128
  %6 = load ptr, ptr %5, align 8
  %7 = tail call noundef zeroext i1 %6(ptr noundef nonnull align 8 dereferenceable(8) %3)
  br i1 %7, label %8, label %12

8:                                                ; preds = %2
  %9 = getelementptr inbounds i8, ptr %0, i64 8
  %10 = tail call noundef nonnull align 8 dereferenceable(8) ptr @_ZNK13RichParameter4nameEv(ptr noundef nonnull align 8 dereferenceable(56) %1)
  %11 = tail call noundef zeroext i1 @_ZeqRK7QStringS1_(ptr noundef nonnull align 8 dereferenceable(8) %9, ptr noundef nonnull align 8 dereferenceable(8) %10) #8
  br label %12

12:                                               ; preds = %8, %2
  %13 = phi i1 [ false, %2 ], [ %11, %8 ]
  ret i1 %13
}